target datalayout = "e-m:e-p270:32:32-p271:32:32-p272:64:64-i64:64-i128:128-f80:128-n8:16:32:64-S128"
target triple = "x86_64-pc-linux-gnu"

%struct.ARKodeMemRec = type { ptr, double, ptr, i32, i32, double, double, ptr, i32, double, ptr, i32, i32, ptr, ptr, i32, ptr, ptr, i32, ptr, ptr, ptr, ptr, ptr, ptr, ptr, ptr, ptr, ptr, ptr, ptr, ptr, ptr, ptr, i32, ptr, ptr, i32, ptr, i32, ptr, ptr, ptr, ptr, ptr, ptr, ptr, ptr, ptr, ptr, ptr, ptr, ptr, ptr, ptr, ptr, ptr, ptr, ptr, ptr, ptr, ptr, ptr, ptr, ptr, ptr, i32, ptr, ptr, ptr, ptr, ptr, ptr, ptr, i32, ptr, ptr, ptr, i32, ptr, ptr, ptr, ptr, ptr, ptr, ptr, i32, i32, i32, i32, double, double, double, double, double, double, double, double, double, double, i32, ptr, i64, i32, i32, i32, i32, i64, i64, i32, i64, i64, i64, i64, i64, i64, i64, double, double, double, double, double, i32, double, double, i32, i32, i32, i32, i32, i32, i32, i32, ptr, i32, ptr, ptr, ptr, ptr, i32, i32, i32 }
%struct.ARKodeLSRKStepMemRec = type { ptr, ptr, i32, i32, i32, i32, i64, i64, i32, i32, i64, i64, double, double, double, double, double, double, i64, i32, i32, i32, i32, ptr, ptr, i32 }

@.str = private unnamed_addr constant [124 x i8] c"generated/home/dtcxzyw/WorkSpace/Projects/compilers/llvm-opt-benchmark/bench/sundials/sundials/src/arkode/arkode_lsrkstep.c\00", align 1
@__func__.lsrkStep_PrintMem = private unnamed_addr constant [18 x i8] c"lsrkStep_PrintMem\00", align 1
@.str.14 = private unnamed_addr constant [39 x i8] c"LSRKStep RKC time step module memory:\0A\00", align 1
@.str.15 = private unnamed_addr constant [39 x i8] c"LSRKStep RKL time step module memory:\0A\00", align 1
@.str.16 = private unnamed_addr constant [44 x i8] c"LSRKStep SSP(s,2) time step module memory:\0A\00", align 1
@.str.17 = private unnamed_addr constant [44 x i8] c"LSRKStep SSP(s,3) time step module memory:\0A\00", align 1
@.str.18 = private unnamed_addr constant [45 x i8] c"LSRKStep SSP(10,4) time step module memory:\0A\00", align 1
@.str.19 = private unnamed_addr constant [23 x i8] c"Invalid method option.\00", align 1
@.str.20 = private unnamed_addr constant [36 x i8] c"LSRKStep: q                   = %i\0A\00", align 1
@.str.21 = private unnamed_addr constant [36 x i8] c"LSRKStep: p                   = %i\0A\00", align 1
@.str.22 = private unnamed_addr constant [36 x i8] c"LSRKStep: req_stages          = %i\0A\00", align 1
@.str.23 = private unnamed_addr constant [37 x i8] c"LSRKStep: nfe                 = %li\0A\00", align 1
@.str.24 = private unnamed_addr constant [38 x i8] c"LSRKStep: req_stages            = %i\0A\00", align 1
@.str.25 = private unnamed_addr constant [39 x i8] c"LSRKStep: dom_eig_nst           = %li\0A\00", align 1
@.str.26 = private unnamed_addr constant [38 x i8] c"LSRKStep: stage_max             = %i\0A\00", align 1
@.str.27 = private unnamed_addr constant [38 x i8] c"LSRKStep: stage_max_limit       = %i\0A\00", align 1
@.str.28 = private unnamed_addr constant [39 x i8] c"LSRKStep: dom_eig_freq          = %li\0A\00", align 1
@.str.29 = private unnamed_addr constant [39 x i8] c"LSRKStep: nfe                   = %li\0A\00", align 1
@.str.30 = private unnamed_addr constant [39 x i8] c"LSRKStep: dom_eig_num_evals     = %li\0A\00", align 1
@.str.31 = private unnamed_addr constant [49 x i8] c"LSRKStep: dom_eig               = %.16g %+.16gi\0A\00", align 1
@.str.32 = private unnamed_addr constant [41 x i8] c"LSRKStep: spectral_radius       = %.16g\0A\00", align 1
@.str.33 = private unnamed_addr constant [41 x i8] c"LSRKStep: spectral_radius_max   = %.16g\0A\00", align 1
@.str.34 = private unnamed_addr constant [41 x i8] c"LSRKStep: spectral_radius_min   = %.16g\0A\00", align 1
@.str.35 = private unnamed_addr constant [41 x i8] c"LSRKStep: dom_eig_safety        = %.16g\0A\00", align 1
@.str.36 = private unnamed_addr constant [38 x i8] c"LSRKStep: dom_eig_update        = %d\0A\00", align 1
@.str.37 = private unnamed_addr constant [38 x i8] c"LSRKStep: dom_eig_is_current    = %d\0A\00", align 1
@.str.38 = private unnamed_addr constant [21 x i8] c"Invalid method type.\00", align 1
@.str.39 = private unnamed_addr constant [33 x i8] c"Time step module memory is NULL.\00", align 1

; Function Attrs: nounwind uwtable
define i32 @lsrkStep_AccessStepMem(ptr noundef %0, ptr noundef %1, ptr noundef %2) #0 {
  %4 = alloca i32, align 4
  %5 = alloca ptr, align 8
  %6 = alloca ptr, align 8
  %7 = alloca ptr, align 8
  store ptr %0, ptr %5, align 8, !tbaa !13
  store ptr %1, ptr %6, align 8, !tbaa !110
  store ptr %2, ptr %7, align 8, !tbaa !114
  %8 = load ptr, ptr %5, align 8, !tbaa !13
  %9 = getelementptr inbounds nuw %struct.ARKodeMemRec, ptr %8, i32 0, i32 19
  %10 = load ptr, ptr %9, align 8, !tbaa !35
  %11 = icmp eq ptr %10, null
  br i1 %11, label %12, label %15

12:                                               ; preds = %3
  %13 = load ptr, ptr %5, align 8, !tbaa !13
  %14 = load ptr, ptr %6, align 8, !tbaa !110
  call void (ptr, i32, i32, ptr, ptr, ptr, ...) @arkProcessError(ptr noundef %13, i32 noundef -21, i32 noundef 2160, ptr noundef %14, ptr noundef @.str, ptr noundef @.str.39)
  store i32 -21, ptr %4, align 4
  br label %20

15:                                               ; preds = %3
  %16 = load ptr, ptr %5, align 8, !tbaa !13
  %17 = getelementptr inbounds nuw %struct.ARKodeMemRec, ptr %16, i32 0, i32 19
  %18 = load ptr, ptr %17, align 8, !tbaa !35
  %19 = load ptr, ptr %7, align 8, !tbaa !114
  store ptr %18, ptr %19, align 8, !tbaa !17
  store i32 0, ptr %4, align 4
  br label %20

20:                                               ; preds = %15, %12
  %21 = load i32, ptr %4, align 4
  ret i32 %21
}

; Function Attrs: nounwind uwtable
define void @lsrkStep_PrintMem(ptr noundef %0, ptr noundef %1) #0 {
  %3 = alloca ptr, align 8
  %4 = alloca ptr, align 8
  %5 = alloca ptr, align 8
  %6 = alloca i32, align 4
  %7 = alloca i32, align 4
  store ptr %0, ptr %3, align 8, !tbaa !13
  store ptr %1, ptr %4, align 8, !tbaa !101
  call void @llvm.lifetime.start.p0(i64 8, ptr %5) #6
  call void @llvm.lifetime.start.p0(i64 4, ptr %6) #6
  %8 = load ptr, ptr %3, align 8, !tbaa !13
  %9 = call i32 @lsrkStep_AccessStepMem(ptr noundef %8, ptr noundef @__func__.lsrkStep_PrintMem, ptr noundef %5)
  store i32 %9, ptr %6, align 4, !tbaa !15
  %10 = load i32, ptr %6, align 4, !tbaa !15
  %11 = icmp ne i32 %10, 0
  br i1 %11, label %12, label %13

12:                                               ; preds = %2
  store i32 1, ptr %7, align 4
  br label %143

13:                                               ; preds = %2
  %14 = load ptr, ptr %5, align 8, !tbaa !17
  %15 = getelementptr inbounds nuw %struct.ARKodeLSRKStepMemRec, ptr %14, i32 0, i32 5
  %16 = load i32, ptr %15, align 4, !tbaa !103
  switch i32 %16, label %32 [
    i32 0, label %17
    i32 1, label %20
    i32 2, label %23
    i32 3, label %26
    i32 4, label %29
  ]

17:                                               ; preds = %13
  %18 = load ptr, ptr %4, align 8, !tbaa !101
  %19 = call i32 (ptr, ptr, ...) @fprintf(ptr noundef %18, ptr noundef @.str.14) #6
  br label %34

20:                                               ; preds = %13
  %21 = load ptr, ptr %4, align 8, !tbaa !101
  %22 = call i32 (ptr, ptr, ...) @fprintf(ptr noundef %21, ptr noundef @.str.15) #6
  br label %34

23:                                               ; preds = %13
  %24 = load ptr, ptr %4, align 8, !tbaa !101
  %25 = call i32 (ptr, ptr, ...) @fprintf(ptr noundef %24, ptr noundef @.str.16) #6
  br label %34

26:                                               ; preds = %13
  %27 = load ptr, ptr %4, align 8, !tbaa !101
  %28 = call i32 (ptr, ptr, ...) @fprintf(ptr noundef %27, ptr noundef @.str.17) #6
  br label %34

29:                                               ; preds = %13
  %30 = load ptr, ptr %4, align 8, !tbaa !101
  %31 = call i32 (ptr, ptr, ...) @fprintf(ptr noundef %30, ptr noundef @.str.18) #6
  br label %34

32:                                               ; preds = %13
  %33 = load ptr, ptr %3, align 8, !tbaa !13
  call void (ptr, i32, i32, ptr, ptr, ptr, ...) @arkProcessError(ptr noundef %33, i32 noundef -22, i32 noundef 2056, ptr noundef @__func__.lsrkStep_PrintMem, ptr noundef @.str, ptr noundef @.str.19)
  store i32 1, ptr %7, align 4
  br label %143

34:                                               ; preds = %29, %26, %23, %20, %17
  %35 = load ptr, ptr %4, align 8, !tbaa !101
  %36 = load ptr, ptr %5, align 8, !tbaa !17
  %37 = getelementptr inbounds nuw %struct.ARKodeLSRKStepMemRec, ptr %36, i32 0, i32 2
  %38 = load i32, ptr %37, align 8, !tbaa !104
  %39 = call i32 (ptr, ptr, ...) @fprintf(ptr noundef %35, ptr noundef @.str.20, i32 noundef %38) #6
  %40 = load ptr, ptr %4, align 8, !tbaa !101
  %41 = load ptr, ptr %5, align 8, !tbaa !17
  %42 = getelementptr inbounds nuw %struct.ARKodeLSRKStepMemRec, ptr %41, i32 0, i32 3
  %43 = load i32, ptr %42, align 4, !tbaa !105
  %44 = call i32 (ptr, ptr, ...) @fprintf(ptr noundef %40, ptr noundef @.str.21, i32 noundef %43) #6
  %45 = load ptr, ptr %5, align 8, !tbaa !17
  %46 = getelementptr inbounds nuw %struct.ARKodeLSRKStepMemRec, ptr %45, i32 0, i32 22
  %47 = load i32, ptr %46, align 4, !tbaa !72
  %48 = icmp ne i32 %47, 0
  br i1 %48, label %49, label %60

49:                                               ; preds = %34
  %50 = load ptr, ptr %4, align 8, !tbaa !101
  %51 = load ptr, ptr %5, align 8, !tbaa !17
  %52 = getelementptr inbounds nuw %struct.ARKodeLSRKStepMemRec, ptr %51, i32 0, i32 4
  %53 = load i32, ptr %52, align 8, !tbaa !89
  %54 = call i32 (ptr, ptr, ...) @fprintf(ptr noundef %50, ptr noundef @.str.22, i32 noundef %53) #6
  %55 = load ptr, ptr %4, align 8, !tbaa !101
  %56 = load ptr, ptr %5, align 8, !tbaa !17
  %57 = getelementptr inbounds nuw %struct.ARKodeLSRKStepMemRec, ptr %56, i32 0, i32 6
  %58 = load i64, ptr %57, align 8, !tbaa !42
  %59 = call i32 (ptr, ptr, ...) @fprintf(ptr noundef %55, ptr noundef @.str.23, i64 noundef %58) #6
  br label %142

60:                                               ; preds = %34
  %61 = load ptr, ptr %5, align 8, !tbaa !17
  %62 = getelementptr inbounds nuw %struct.ARKodeLSRKStepMemRec, ptr %61, i32 0, i32 22
  %63 = load i32, ptr %62, align 4, !tbaa !72
  %64 = icmp ne i32 %63, 0
  br i1 %64, label %139, label %65

65:                                               ; preds = %60
  %66 = load ptr, ptr %4, align 8, !tbaa !101
  %67 = load ptr, ptr %5, align 8, !tbaa !17
  %68 = getelementptr inbounds nuw %struct.ARKodeLSRKStepMemRec, ptr %67, i32 0, i32 4
  %69 = load i32, ptr %68, align 8, !tbaa !89
  %70 = call i32 (ptr, ptr, ...) @fprintf(ptr noundef %66, ptr noundef @.str.24, i32 noundef %69) #6
  %71 = load ptr, ptr %4, align 8, !tbaa !101
  %72 = load ptr, ptr %5, align 8, !tbaa !17
  %73 = getelementptr inbounds nuw %struct.ARKodeLSRKStepMemRec, ptr %72, i32 0, i32 10
  %74 = load i64, ptr %73, align 8, !tbaa !46
  %75 = call i32 (ptr, ptr, ...) @fprintf(ptr noundef %71, ptr noundef @.str.25, i64 noundef %74) #6
  %76 = load ptr, ptr %4, align 8, !tbaa !101
  %77 = load ptr, ptr %5, align 8, !tbaa !17
  %78 = getelementptr inbounds nuw %struct.ARKodeLSRKStepMemRec, ptr %77, i32 0, i32 8
  %79 = load i32, ptr %78, align 8, !tbaa !43
  %80 = call i32 (ptr, ptr, ...) @fprintf(ptr noundef %76, ptr noundef @.str.26, i32 noundef %79) #6
  %81 = load ptr, ptr %4, align 8, !tbaa !101
  %82 = load ptr, ptr %5, align 8, !tbaa !17
  %83 = getelementptr inbounds nuw %struct.ARKodeLSRKStepMemRec, ptr %82, i32 0, i32 9
  %84 = load i32, ptr %83, align 4, !tbaa !45
  %85 = call i32 (ptr, ptr, ...) @fprintf(ptr noundef %81, ptr noundef @.str.27, i32 noundef %84) #6
  %86 = load ptr, ptr %4, align 8, !tbaa !101
  %87 = load ptr, ptr %5, align 8, !tbaa !17
  %88 = getelementptr inbounds nuw %struct.ARKodeLSRKStepMemRec, ptr %87, i32 0, i32 18
  %89 = load i64, ptr %88, align 8, !tbaa !106
  %90 = call i32 (ptr, ptr, ...) @fprintf(ptr noundef %86, ptr noundef @.str.28, i64 noundef %89) #6
  %91 = load ptr, ptr %4, align 8, !tbaa !101
  %92 = load ptr, ptr %5, align 8, !tbaa !17
  %93 = getelementptr inbounds nuw %struct.ARKodeLSRKStepMemRec, ptr %92, i32 0, i32 6
  %94 = load i64, ptr %93, align 8, !tbaa !42
  %95 = call i32 (ptr, ptr, ...) @fprintf(ptr noundef %91, ptr noundef @.str.29, i64 noundef %94) #6
  %96 = load ptr, ptr %4, align 8, !tbaa !101
  %97 = load ptr, ptr %5, align 8, !tbaa !17
  %98 = getelementptr inbounds nuw %struct.ARKodeLSRKStepMemRec, ptr %97, i32 0, i32 7
  %99 = load i64, ptr %98, align 8, !tbaa !44
  %100 = call i32 (ptr, ptr, ...) @fprintf(ptr noundef %96, ptr noundef @.str.30, i64 noundef %99) #6
  %101 = load ptr, ptr %4, align 8, !tbaa !101
  %102 = load ptr, ptr %5, align 8, !tbaa !17
  %103 = getelementptr inbounds nuw %struct.ARKodeLSRKStepMemRec, ptr %102, i32 0, i32 12
  %104 = load double, ptr %103, align 8, !tbaa !107
  %105 = load ptr, ptr %5, align 8, !tbaa !17
  %106 = getelementptr inbounds nuw %struct.ARKodeLSRKStepMemRec, ptr %105, i32 0, i32 13
  %107 = load double, ptr %106, align 8, !tbaa !108
  %108 = call i32 (ptr, ptr, ...) @fprintf(ptr noundef %101, ptr noundef @.str.31, double noundef %104, double noundef %107) #6
  %109 = load ptr, ptr %4, align 8, !tbaa !101
  %110 = load ptr, ptr %5, align 8, !tbaa !17
  %111 = getelementptr inbounds nuw %struct.ARKodeLSRKStepMemRec, ptr %110, i32 0, i32 14
  %112 = load double, ptr %111, align 8, !tbaa !82
  %113 = call i32 (ptr, ptr, ...) @fprintf(ptr noundef %109, ptr noundef @.str.32, double noundef %112) #6
  %114 = load ptr, ptr %4, align 8, !tbaa !101
  %115 = load ptr, ptr %5, align 8, !tbaa !17
  %116 = getelementptr inbounds nuw %struct.ARKodeLSRKStepMemRec, ptr %115, i32 0, i32 15
  %117 = load double, ptr %116, align 8, !tbaa !53
  %118 = call i32 (ptr, ptr, ...) @fprintf(ptr noundef %114, ptr noundef @.str.33, double noundef %117) #6
  %119 = load ptr, ptr %4, align 8, !tbaa !101
  %120 = load ptr, ptr %5, align 8, !tbaa !17
  %121 = getelementptr inbounds nuw %struct.ARKodeLSRKStepMemRec, ptr %120, i32 0, i32 16
  %122 = load double, ptr %121, align 8, !tbaa !54
  %123 = call i32 (ptr, ptr, ...) @fprintf(ptr noundef %119, ptr noundef @.str.34, double noundef %122) #6
  %124 = load ptr, ptr %4, align 8, !tbaa !101
  %125 = load ptr, ptr %5, align 8, !tbaa !17
  %126 = getelementptr inbounds nuw %struct.ARKodeLSRKStepMemRec, ptr %125, i32 0, i32 17
  %127 = load double, ptr %126, align 8, !tbaa !109
  %128 = call i32 (ptr, ptr, ...) @fprintf(ptr noundef %124, ptr noundef @.str.35, double noundef %127) #6
  %129 = load ptr, ptr %4, align 8, !tbaa !101
  %130 = load ptr, ptr %5, align 8, !tbaa !17
  %131 = getelementptr inbounds nuw %struct.ARKodeLSRKStepMemRec, ptr %130, i32 0, i32 19
  %132 = load i32, ptr %131, align 8, !tbaa !55
  %133 = call i32 (ptr, ptr, ...) @fprintf(ptr noundef %129, ptr noundef @.str.36, i32 noundef %132) #6
  %134 = load ptr, ptr %4, align 8, !tbaa !101
  %135 = load ptr, ptr %5, align 8, !tbaa !17
  %136 = getelementptr inbounds nuw %struct.ARKodeLSRKStepMemRec, ptr %135, i32 0, i32 21
  %137 = load i32, ptr %136, align 8, !tbaa !56
  %138 = call i32 (ptr, ptr, ...) @fprintf(ptr noundef %134, ptr noundef @.str.37, i32 noundef %137) #6
  br label %141

139:                                              ; preds = %60
  %140 = load ptr, ptr %3, align 8, !tbaa !13
  call void (ptr, i32, i32, ptr, ptr, ptr, ...) @arkProcessError(ptr noundef %140, i32 noundef -22, i32 noundef 2109, ptr noundef @__func__.lsrkStep_PrintMem, ptr noundef @.str, ptr noundef @.str.38)
  store i32 1, ptr %7, align 4
  br label %143

141:                                              ; preds = %65
  br label %142

142:                                              ; preds = %141, %49
  store i32 0, ptr %7, align 4
  br label %143

143:                                              ; preds = %142, %139, %32, %12
  call void @llvm.lifetime.end.p0(i64 4, ptr %6) #6
  call void @llvm.lifetime.end.p0(i64 8, ptr %5) #6
  %144 = load i32, ptr %7, align 4
  switch i32 %144, label %146 [
    i32 0, label %145
    i32 1, label %145
  ]

145:                                              ; preds = %143, %143
  ret void

146:                                              ; preds = %143
  unreachable
}