; Function Attrs: nounwind uwtable
define void @lsrkStep_PrintMem(ptr noundef %0, ptr noundef captures(none) %1) #0 {
  %3 = getelementptr inbounds nuw i8, ptr %0, i64 136
  %4 = load ptr, ptr %3, align 8, !tbaa !3
  %5 = icmp eq ptr %4, null
  br i1 %5, label %lsrkStep_AccessStepMem.exit, label %6

lsrkStep_AccessStepMem.exit:                      ; preds = %2
  tail call void (ptr, i32, i32, ptr, ptr, ptr, ...) @arkProcessError(ptr noundef nonnull %0, i32 noundef -21, i32 noundef 2160, ptr noundef nonnull @__func__.lsrkStep_PrintMem, ptr noundef nonnull @.str, ptr noundef nonnull @.str.39) #13
  br label %79

6:                                                ; preds = %2
  %7 = getelementptr inbounds nuw i8, ptr %4, i64 28
  %8 = load i32, ptr %7, align 4, !tbaa !90
  switch i32 %8, label %19 [
    i32 0, label %9
    i32 1, label %11
    i32 2, label %13
    i32 3, label %15
    i32 4, label %17
  ]

9:                                                ; preds = %6
  %10 = tail call i64 @fwrite(ptr nonnull @.str.14, i64 38, i64 1, ptr %1)
  br label %20

11:                                               ; preds = %6
  %12 = tail call i64 @fwrite(ptr nonnull @.str.15, i64 38, i64 1, ptr %1)
  br label %20

13:                                               ; preds = %6
  %14 = tail call i64 @fwrite(ptr nonnull @.str.16, i64 43, i64 1, ptr %1)
  br label %20

15:                                               ; preds = %6
  %16 = tail call i64 @fwrite(ptr nonnull @.str.17, i64 43, i64 1, ptr %1)
  br label %20

17:                                               ; preds = %6
  %18 = tail call i64 @fwrite(ptr nonnull @.str.18, i64 44, i64 1, ptr %1)
  br label %20

19:                                               ; preds = %6
  tail call void (ptr, i32, i32, ptr, ptr, ptr, ...) @arkProcessError(ptr noundef nonnull %0, i32 noundef -22, i32 noundef 2056, ptr noundef nonnull @__func__.lsrkStep_PrintMem, ptr noundef nonnull @.str, ptr noundef nonnull @.str.19) #13
  br label %79

20:                                               ; preds = %17, %15, %13, %11, %9
  %21 = getelementptr inbounds nuw i8, ptr %4, i64 16
  %22 = load i32, ptr %21, align 8, !tbaa !91
  %23 = tail call i32 (ptr, ptr, ...) @fprintf(ptr noundef %1, ptr noundef nonnull @.str.20, i32 noundef %22) #13
  %24 = getelementptr inbounds nuw i8, ptr %4, i64 20
  %25 = load i32, ptr %24, align 4, !tbaa !92
  %26 = tail call i32 (ptr, ptr, ...) @fprintf(ptr noundef %1, ptr noundef nonnull @.str.21, i32 noundef %25) #13
  %27 = getelementptr inbounds nuw i8, ptr %4, i64 140
  %28 = load i32, ptr %27, align 4, !tbaa !60
  %.not26 = icmp eq i32 %28, 0
  %29 = getelementptr inbounds nuw i8, ptr %4, i64 24
  %30 = load i32, ptr %29, align 8, !tbaa !76
  br i1 %.not26, label %36, label %31

31:                                               ; preds = %20
  %32 = tail call i32 (ptr, ptr, ...) @fprintf(ptr noundef %1, ptr noundef nonnull @.str.22, i32 noundef %30) #13
  %33 = getelementptr inbounds nuw i8, ptr %4, i64 32
  %34 = load i64, ptr %33, align 8, !tbaa !64
  %35 = tail call i32 (ptr, ptr, ...) @fprintf(ptr noundef %1, ptr noundef nonnull @.str.23, i64 noundef %34) #13
  br label %79

36:                                               ; preds = %20
  %37 = tail call i32 (ptr, ptr, ...) @fprintf(ptr noundef %1, ptr noundef nonnull @.str.24, i32 noundef %30) #13
  %38 = getelementptr inbounds nuw i8, ptr %4, i64 56
  %39 = load i64, ptr %38, align 8, !tbaa !52
  %40 = tail call i32 (ptr, ptr, ...) @fprintf(ptr noundef %1, ptr noundef nonnull @.str.25, i64 noundef %39) #13
  %41 = getelementptr inbounds nuw i8, ptr %4, i64 48
  %42 = load i32, ptr %41, align 8, !tbaa !77
  %43 = tail call i32 (ptr, ptr, ...) @fprintf(ptr noundef %1, ptr noundef nonnull @.str.26, i32 noundef %42) #13
  %44 = getelementptr inbounds nuw i8, ptr %4, i64 52
  %45 = load i32, ptr %44, align 4, !tbaa !51
  %46 = tail call i32 (ptr, ptr, ...) @fprintf(ptr noundef %1, ptr noundef nonnull @.str.27, i32 noundef %45) #13
  %47 = getelementptr inbounds nuw i8, ptr %4, i64 120
  %48 = load i64, ptr %47, align 8, !tbaa !93
  %49 = tail call i32 (ptr, ptr, ...) @fprintf(ptr noundef %1, ptr noundef nonnull @.str.28, i64 noundef %48) #13
  %50 = getelementptr inbounds nuw i8, ptr %4, i64 32
  %51 = load i64, ptr %50, align 8, !tbaa !64
  %52 = tail call i32 (ptr, ptr, ...) @fprintf(ptr noundef %1, ptr noundef nonnull @.str.29, i64 noundef %51) #13
  %53 = getelementptr inbounds nuw i8, ptr %4, i64 40
  %54 = load i64, ptr %53, align 8, !tbaa !94
  %55 = tail call i32 (ptr, ptr, ...) @fprintf(ptr noundef %1, ptr noundef nonnull @.str.30, i64 noundef %54) #13
  %56 = getelementptr inbounds nuw i8, ptr %4, i64 72
  %57 = load double, ptr %56, align 8, !tbaa !95
  %58 = getelementptr inbounds nuw i8, ptr %4, i64 80
  %59 = load double, ptr %58, align 8, !tbaa !96
  %60 = tail call i32 (ptr, ptr, ...) @fprintf(ptr noundef %1, ptr noundef nonnull @.str.31, double noundef %57, double noundef %59) #13
  %61 = getelementptr inbounds nuw i8, ptr %4, i64 88
  %62 = load double, ptr %61, align 8, !tbaa !69
  %63 = tail call i32 (ptr, ptr, ...) @fprintf(ptr noundef %1, ptr noundef nonnull @.str.32, double noundef %62) #13
  %64 = getelementptr inbounds nuw i8, ptr %4, i64 96
  %65 = load double, ptr %64, align 8, !tbaa !97
  %66 = tail call i32 (ptr, ptr, ...) @fprintf(ptr noundef %1, ptr noundef nonnull @.str.33, double noundef %65) #13
  %67 = getelementptr inbounds nuw i8, ptr %4, i64 104
  %68 = load double, ptr %67, align 8, !tbaa !98
  %69 = tail call i32 (ptr, ptr, ...) @fprintf(ptr noundef %1, ptr noundef nonnull @.str.34, double noundef %68) #13
  %70 = getelementptr inbounds nuw i8, ptr %4, i64 112
  %71 = load double, ptr %70, align 8, !tbaa !99
  %72 = tail call i32 (ptr, ptr, ...) @fprintf(ptr noundef %1, ptr noundef nonnull @.str.35, double noundef %71) #13
  %73 = getelementptr inbounds nuw i8, ptr %4, i64 128
  %74 = load i32, ptr %73, align 8, !tbaa !54
  %75 = tail call i32 (ptr, ptr, ...) @fprintf(ptr noundef %1, ptr noundef nonnull @.str.36, i32 noundef %74) #13
  %76 = getelementptr inbounds nuw i8, ptr %4, i64 136
  %77 = load i32, ptr %76, align 8, !tbaa !55
  %78 = tail call i32 (ptr, ptr, ...) @fprintf(ptr noundef %1, ptr noundef nonnull @.str.37, i32 noundef %77) #13
  br label %79

79:                                               ; preds = %lsrkStep_AccessStepMem.exit, %31, %36, %19
  ret void
}